target datalayout = "e-m:e-p270:32:32-p271:32:32-p272:64:64-i64:64-i128:128-f80:128-n8:16:32:64-S128"
target triple = "x86_64-pc-linux-gnu"

; Function Attrs: nounwind uwtable
define internal void @bdof_fetch_samples_8(ptr noundef %0, ptr noundef %1, i64 noundef %2, i32 noundef %3, i32 noundef %4, i32 noundef %5, i32 noundef %6) #0 {
  %8 = alloca ptr, align 8
  %9 = alloca ptr, align 8
  %10 = alloca i64, align 8
  %11 = alloca i32, align 4
  %12 = alloca i32, align 4
  %13 = alloca i32, align 4
  %14 = alloca i32, align 4
  %15 = alloca i32, align 4
  %16 = alloca i32, align 4
  %17 = alloca i64, align 8
  %18 = alloca ptr, align 8
  %19 = alloca ptr, align 8
  %20 = alloca i32, align 4
  %21 = alloca i32, align 4
  %22 = alloca i32, align 4
  %23 = alloca i32, align 4
  %24 = alloca i32, align 4
  store ptr %0, ptr %8, align 8, !tbaa !142
  store ptr %1, ptr %9, align 8, !tbaa !144
  store i64 %2, ptr %10, align 8, !tbaa !146
  store i32 %3, ptr %11, align 4, !tbaa !9
  store i32 %4, ptr %12, align 4, !tbaa !9
  store i32 %5, ptr %13, align 4, !tbaa !9
  store i32 %6, ptr %14, align 4, !tbaa !9
  call void @llvm.lifetime.start.p0(i64 4, ptr %15) #8
  %25 = load i32, ptr %11, align 4, !tbaa !9
  %26 = ashr i32 %25, 3
  %27 = sub nsw i32 %26, 1
  store i32 %27, ptr %15, align 4, !tbaa !9
  call void @llvm.lifetime.start.p0(i64 4, ptr %16) #8
  %28 = load i32, ptr %12, align 4, !tbaa !9
  %29 = ashr i32 %28, 3
  %30 = sub nsw i32 %29, 1
  store i32 %30, ptr %16, align 4, !tbaa !9
  call void @llvm.lifetime.start.p0(i64 8, ptr %17) #8
  %31 = load i64, ptr %10, align 8, !tbaa !146
  %32 = udiv i64 %31, 1
  store i64 %32, ptr %17, align 8, !tbaa !146
  call void @llvm.lifetime.start.p0(i64 8, ptr %18) #8
  %33 = load ptr, ptr %9, align 8, !tbaa !144
  %34 = load i32, ptr %15, align 4, !tbaa !9
  %35 = sext i32 %34 to i64
  %36 = getelementptr inbounds i8, ptr %33, i64 %35
  %37 = load i32, ptr %16, align 4, !tbaa !9
  %38 = sext i32 %37 to i64
  %39 = load i64, ptr %17, align 8, !tbaa !146
  %40 = mul nsw i64 %38, %39
  %41 = getelementptr inbounds i8, ptr %36, i64 %40
  store ptr %41, ptr %18, align 8, !tbaa !144
  call void @llvm.lifetime.start.p0(i64 8, ptr %19) #8
  %42 = load ptr, ptr %8, align 8, !tbaa !142
  %43 = getelementptr inbounds i16, ptr %42, i64 -1
  %44 = getelementptr inbounds i16, ptr %43, i64 -128
  store ptr %44, ptr %19, align 8, !tbaa !142
  call void @llvm.lifetime.start.p0(i64 4, ptr %20) #8
  store i32 6, ptr %20, align 4, !tbaa !9
  call void @llvm.lifetime.start.p0(i64 4, ptr %21) #8
  %45 = load i32, ptr %13, align 4, !tbaa !9
  %46 = add nsw i32 %45, 2
  store i32 %46, ptr %21, align 4, !tbaa !9
  call void @llvm.lifetime.start.p0(i64 4, ptr %22) #8
  store i32 0, ptr %22, align 4, !tbaa !9
  br label %47

47:                                               ; preds = %65, %7
  %48 = load i32, ptr %22, align 4, !tbaa !9
  %49 = load i32, ptr %21, align 4, !tbaa !9
  %50 = icmp slt i32 %48, %49
  br i1 %50, label %52, label %51

51:                                               ; preds = %47
  call void @llvm.lifetime.end.p0(i64 4, ptr %22) #8
  br label %68

52:                                               ; preds = %47
  %53 = load ptr, ptr %18, align 8, !tbaa !144
  %54 = load i32, ptr %22, align 4, !tbaa !9
  %55 = sext i32 %54 to i64
  %56 = getelementptr inbounds i8, ptr %53, i64 %55
  %57 = load i8, ptr %56, align 1, !tbaa !152
  %58 = zext i8 %57 to i32
  %59 = shl i32 %58, 6
  %60 = trunc i32 %59 to i16
  %61 = load ptr, ptr %19, align 8, !tbaa !142
  %62 = load i32, ptr %22, align 4, !tbaa !9
  %63 = sext i32 %62 to i64
  %64 = getelementptr inbounds i16, ptr %61, i64 %63
  store i16 %60, ptr %64, align 2, !tbaa !148
  br label %65

65:                                               ; preds = %52
  %66 = load i32, ptr %22, align 4, !tbaa !9
  %67 = add nsw i32 %66, 1
  store i32 %67, ptr %22, align 4, !tbaa !9
  br label %47, !llvm.loop !760

68:                                               ; preds = %51
  %69 = load ptr, ptr %19, align 8, !tbaa !142
  %70 = getelementptr inbounds i16, ptr %69, i64 128
  store ptr %70, ptr %19, align 8, !tbaa !142
  %71 = load i64, ptr %17, align 8, !tbaa !146
  %72 = load ptr, ptr %18, align 8, !tbaa !144
  %73 = getelementptr inbounds i8, ptr %72, i64 %71
  store ptr %73, ptr %18, align 8, !tbaa !144
  call void @llvm.lifetime.start.p0(i64 4, ptr %23) #8
  store i32 0, ptr %23, align 4, !tbaa !9
  br label %74

74:                                               ; preds = %107, %68
  %75 = load i32, ptr %23, align 4, !tbaa !9
  %76 = load i32, ptr %14, align 4, !tbaa !9
  %77 = icmp slt i32 %75, %76
  br i1 %77, label %79, label %78

78:                                               ; preds = %74
  call void @llvm.lifetime.end.p0(i64 4, ptr %23) #8
  br label %110

79:                                               ; preds = %74
  %80 = load ptr, ptr %18, align 8, !tbaa !144
  %81 = getelementptr inbounds i8, ptr %80, i64 0
  %82 = load i8, ptr %81, align 1, !tbaa !152
  %83 = zext i8 %82 to i32
  %84 = shl i32 %83, 6
  %85 = trunc i32 %84 to i16
  %86 = load ptr, ptr %19, align 8, !tbaa !142
  %87 = getelementptr inbounds i16, ptr %86, i64 0
  store i16 %85, ptr %87, align 2, !tbaa !148
  %88 = load ptr, ptr %18, align 8, !tbaa !144
  %89 = load i32, ptr %13, align 4, !tbaa !9
  %90 = add nsw i32 1, %89
  %91 = sext i32 %90 to i64
  %92 = getelementptr inbounds i8, ptr %88, i64 %91
  %93 = load i8, ptr %92, align 1, !tbaa !152
  %94 = zext i8 %93 to i32
  %95 = shl i32 %94, 6
  %96 = trunc i32 %95 to i16
  %97 = load ptr, ptr %19, align 8, !tbaa !142
  %98 = load i32, ptr %13, align 4, !tbaa !9
  %99 = add nsw i32 1, %98
  %100 = sext i32 %99 to i64
  %101 = getelementptr inbounds i16, ptr %97, i64 %100
  store i16 %96, ptr %101, align 2, !tbaa !148
  %102 = load ptr, ptr %19, align 8, !tbaa !142
  %103 = getelementptr inbounds i16, ptr %102, i64 128
  store ptr %103, ptr %19, align 8, !tbaa !142
  %104 = load i64, ptr %17, align 8, !tbaa !146
  %105 = load ptr, ptr %18, align 8, !tbaa !144
  %106 = getelementptr inbounds i8, ptr %105, i64 %104
  store ptr %106, ptr %18, align 8, !tbaa !144
  br label %107

107:                                              ; preds = %79
  %108 = load i32, ptr %23, align 4, !tbaa !9
  %109 = add nsw i32 %108, 1
  store i32 %109, ptr %23, align 4, !tbaa !9
  br label %74, !llvm.loop !761

110:                                              ; preds = %78
  call void @llvm.lifetime.start.p0(i64 4, ptr %24) #8
  store i32 0, ptr %24, align 4, !tbaa !9
  br label %111

111:                                              ; preds = %129, %110
  %112 = load i32, ptr %24, align 4, !tbaa !9
  %113 = load i32, ptr %21, align 4, !tbaa !9
  %114 = icmp slt i32 %112, %113
  br i1 %114, label %116, label %115

115:                                              ; preds = %111
  call void @llvm.lifetime.end.p0(i64 4, ptr %24) #8
  br label %132

116:                                              ; preds = %111
  %117 = load ptr, ptr %18, align 8, !tbaa !144
  %118 = load i32, ptr %24, align 4, !tbaa !9
  %119 = sext i32 %118 to i64
  %120 = getelementptr inbounds i8, ptr %117, i64 %119
  %121 = load i8, ptr %120, align 1, !tbaa !152
  %122 = zext i8 %121 to i32
  %123 = shl i32 %122, 6
  %124 = trunc i32 %123 to i16
  %125 = load ptr, ptr %19, align 8, !tbaa !142
  %126 = load i32, ptr %24, align 4, !tbaa !9
  %127 = sext i32 %126 to i64
  %128 = getelementptr inbounds i16, ptr %125, i64 %127
  store i16 %124, ptr %128, align 2, !tbaa !148
  br label %129

129:                                              ; preds = %116
  %130 = load i32, ptr %24, align 4, !tbaa !9
  %131 = add nsw i32 %130, 1
  store i32 %131, ptr %24, align 4, !tbaa !9
  br label %111, !llvm.loop !762

132:                                              ; preds = %115
  call void @llvm.lifetime.end.p0(i64 4, ptr %21) #8
  call void @llvm.lifetime.end.p0(i64 4, ptr %20) #8
  call void @llvm.lifetime.end.p0(i64 8, ptr %19) #8
  call void @llvm.lifetime.end.p0(i64 8, ptr %18) #8
  call void @llvm.lifetime.end.p0(i64 8, ptr %17) #8
  call void @llvm.lifetime.end.p0(i64 4, ptr %16) #8
  call void @llvm.lifetime.end.p0(i64 4, ptr %15) #8
  ret void
}

; Function Attrs: nounwind uwtable
define internal void @fetch_samples_8(ptr noundef %0, ptr noundef %1, i64 noundef %2, i32 noundef %3, i32 noundef %4) #0 {
  %6 = alloca ptr, align 8
  %7 = alloca ptr, align 8
  %8 = alloca i64, align 8
  %9 = alloca i32, align 4
  %10 = alloca i32, align 4
  store ptr %0, ptr %6, align 8, !tbaa !142
  store ptr %1, ptr %7, align 8, !tbaa !144
  store i64 %2, ptr %8, align 8, !tbaa !146
  store i32 %3, ptr %9, align 4, !tbaa !9
  store i32 %4, ptr %10, align 4, !tbaa !9
  %11 = load ptr, ptr %6, align 8, !tbaa !142
  %12 = load ptr, ptr %7, align 8, !tbaa !144
  %13 = load i64, ptr %8, align 8, !tbaa !146
  %14 = load i32, ptr %9, align 4, !tbaa !9
  %15 = load i32, ptr %10, align 4, !tbaa !9
  call void @bdof_fetch_samples_8(ptr noundef %11, ptr noundef %12, i64 noundef %13, i32 noundef %14, i32 noundef %15, i32 noundef 4, i32 noundef 4)
  ret void
}