; Function Attrs: nofree norecurse nosync nounwind memory(argmem: readwrite) uwtable
define internal void @fetch_samples_8(ptr noundef writeonly captures(none) %0, ptr noundef readonly captures(none) %1, i64 noundef %2, i32 noundef %3, i32 noundef %4) #2 {
  %6 = ashr i32 %3, 3
  %7 = ashr i32 %4, 3
  %8 = add nsw i32 %7, -1
  %9 = sext i32 %6 to i64
  %10 = getelementptr i8, ptr %1, i64 %9
  %11 = getelementptr i8, ptr %10, i64 -1
  %12 = sext i32 %8 to i64
  %13 = mul nsw i64 %2, %12
  %14 = getelementptr inbounds i8, ptr %11, i64 %13
  %15 = getelementptr inbounds i8, ptr %0, i64 -258
  br label %.lr.ph.i

._crit_edge.i:                                    ; preds = %.lr.ph.i
  %16 = getelementptr inbounds i8, ptr %0, i64 -2
  br label %23

.lr.ph.i:                                         ; preds = %.lr.ph.i, %5
  %indvars.iv.i = phi i64 [ 0, %5 ], [ %indvars.iv.next.i, %.lr.ph.i ]
  %17 = getelementptr inbounds nuw i8, ptr %14, i64 %indvars.iv.i
  %18 = load i8, ptr %17, align 1, !tbaa !128
  %19 = zext i8 %18 to i16
  %20 = shl nuw nsw i16 %19, 6
  %21 = getelementptr inbounds nuw i16, ptr %15, i64 %indvars.iv.i
  store i16 %20, ptr %21, align 2, !tbaa !124
  %indvars.iv.next.i = add nuw nsw i64 %indvars.iv.i, 1
  %exitcond.not.i = icmp eq i64 %indvars.iv.next.i, 6
  br i1 %exitcond.not.i, label %._crit_edge.i, label %.lr.ph.i, !llvm.loop !731

.preheader.i:                                     ; preds = %23
  %22 = getelementptr inbounds i8, ptr %.03946.i, i64 %2
  br label %.lr.ph51.i

23:                                               ; preds = %23, %._crit_edge.i
  %.pn.i = phi ptr [ %14, %._crit_edge.i ], [ %.03946.i, %23 ]
  %.03745.i = phi i32 [ 0, %._crit_edge.i ], [ %33, %23 ]
  %.04044.i = phi ptr [ %16, %._crit_edge.i ], [ %32, %23 ]
  %.03946.i = getelementptr inbounds i8, ptr %.pn.i, i64 %2
  %24 = load i8, ptr %.03946.i, align 1, !tbaa !128
  %25 = zext i8 %24 to i16
  %26 = shl nuw nsw i16 %25, 6
  store i16 %26, ptr %.04044.i, align 2, !tbaa !124
  %27 = getelementptr inbounds nuw i8, ptr %.03946.i, i64 5
  %28 = load i8, ptr %27, align 1, !tbaa !128
  %29 = zext i8 %28 to i16
  %30 = shl nuw nsw i16 %29, 6
  %31 = getelementptr inbounds nuw i8, ptr %.04044.i, i64 10
  store i16 %30, ptr %31, align 2, !tbaa !124
  %32 = getelementptr inbounds nuw i8, ptr %.04044.i, i64 256
  %33 = add nuw nsw i32 %.03745.i, 1
  %exitcond54.not.i = icmp eq i32 %33, 4
  br i1 %exitcond54.not.i, label %.preheader.i, label %23, !llvm.loop !732

.lr.ph51.i:                                       ; preds = %.lr.ph51.i, %.preheader.i
  %indvars.iv55.i = phi i64 [ 0, %.preheader.i ], [ %indvars.iv.next56.i, %.lr.ph51.i ]
  %34 = getelementptr inbounds nuw i8, ptr %22, i64 %indvars.iv55.i
  %35 = load i8, ptr %34, align 1, !tbaa !128
  %36 = zext i8 %35 to i16
  %37 = shl nuw nsw i16 %36, 6
  %38 = getelementptr inbounds nuw i16, ptr %32, i64 %indvars.iv55.i
  store i16 %37, ptr %38, align 2, !tbaa !124
  %indvars.iv.next56.i = add nuw nsw i64 %indvars.iv55.i, 1
  %exitcond60.not.i = icmp eq i64 %indvars.iv.next56.i, 6
  br i1 %exitcond60.not.i, label %bdof_fetch_samples_8.exit, label %.lr.ph51.i, !llvm.loop !733

bdof_fetch_samples_8.exit:                        ; preds = %.lr.ph51.i
  ret void
}